; ModuleID = '40/1631.c'
source_filename = "40/1631.c"
target datalayout = "e-m:e-p270:32:32-p271:32:32-p272:64:64-i64:64-f80:128-n8:16:32:64-S128"
target triple = "x86_64-pc-linux-gnu"

@.str = private unnamed_addr constant [11 x i8] c"%f%f%f%f%f\00", align 1
@.str.1 = private unnamed_addr constant [15 x i8] c"Invalid input\0A\00", align 1
@.str.2 = private unnamed_addr constant [6 x i8] c"%.4f\0A\00", align 1

; Function Attrs: noinline nounwind uwtable
define dso_local void @main() #0 {
  %1 = alloca float, align 4
  %2 = alloca float, align 4
  %3 = alloca float, align 4
  %4 = alloca float, align 4
  %5 = alloca float, align 4
  %6 = alloca float, align 4
  %7 = call i32 (i8*, ...) @__isoc99_scanf(i8* getelementptr inbounds ([11 x i8], [11 x i8]* @.str, i64 0, i64 0), float* %1, float* %2, float* %3, float* %4, float* %5)
  %8 = load float, float* %1, align 4
  %9 = load float, float* %2, align 4
  %10 = load float, float* %3, align 4
  %11 = load float, float* %4, align 4
  %12 = load float, float* %5, align 4
  %13 = call float @m(float %8, float %9, float %10, float %11, float %12)
  %14 = fcmp olt float %13, 0.000000e+00
  br i1 %14, label %15, label %17

15:                                               ; preds = %0
  %16 = call i32 (i8*, ...) @printf(i8* getelementptr inbounds ([15 x i8], [15 x i8]* @.str.1, i64 0, i64 0))
  br label %30

17:                                               ; preds = %0
  %18 = load float, float* %1, align 4
  %19 = load float, float* %2, align 4
  %20 = load float, float* %3, align 4
  %21 = load float, float* %4, align 4
  %22 = load float, float* %5, align 4
  %23 = call float @m(float %18, float %19, float %20, float %21, float %22)
  %24 = fpext float %23 to double
  %25 = call double @sqrt(double %24) #3
  %26 = fptrunc double %25 to float
  store float %26, float* %6, align 4
  %27 = load float, float* %6, align 4
  %28 = fpext float %27 to double
  %29 = call i32 (i8*, ...) @printf(i8* getelementptr inbounds ([6 x i8], [6 x i8]* @.str.2, i64 0, i64 0), double %28)
  br label %30

30:                                               ; preds = %17, %15
  ret void
}

declare dso_local i32 @__isoc99_scanf(i8*, ...) #1

; Function Attrs: noinline nounwind uwtable
define dso_local float @m(float %0, float %1, float %2, float %3, float %4) #0 {
  %6 = alloca float, align 4
  %7 = alloca float, align 4
  %8 = alloca float, align 4
  %9 = alloca float, align 4
  %10 = alloca float, align 4
  %11 = alloca float, align 4
  %12 = alloca float, align 4
  store float %0, float* %6, align 4
  store float %1, float* %7, align 4
  store float %2, float* %8, align 4
  store float %3, float* %9, align 4
  store float %4, float* %10, align 4
  %13 = load float, float* %6, align 4
  %14 = load float, float* %7, align 4
  %15 = fadd float %13, %14
  %16 = load float, float* %8, align 4
  %17 = fadd float %15, %16
  %18 = load float, float* %9, align 4
  %19 = fadd float %17, %18
  %20 = fdiv float %19, 2.000000e+00
  store float %20, float* %12, align 4
  %21 = load float, float* %12, align 4
  %22 = load float, float* %6, align 4
  %23 = fsub float %21, %22
  %24 = load float, float* %12, align 4
  %25 = load float, float* %7, align 4
  %26 = fsub float %24, %25
  %27 = fmul float %23, %26
  %28 = load float, float* %12, align 4
  %29 = load float, float* %8, align 4
  %30 = fsub float %28, %29
  %31 = fmul float %27, %30
  %32 = load float, float* %12, align 4
  %33 = load float, float* %9, align 4
  %34 = fsub float %32, %33
  %35 = fmul float %31, %34
  %36 = fpext float %35 to double
  %37 = load float, float* %6, align 4
  %38 = load float, float* %7, align 4
  %39 = fmul float %37, %38
  %40 = load float, float* %8, align 4
  %41 = fmul float %39, %40
  %42 = load float, float* %9, align 4
  %43 = fmul float %41, %42
  %44 = fpext float %43 to double
  %45 = load float, float* %10, align 4
  %46 = fpext float %45 to double
  %47 = fmul double %46, 0x400921FB4D12D84A
  %48 = fdiv double %47, 3.600000e+02
  %49 = call double @cos(double %48) #3
  %50 = call double @pow(double %49, double 2.000000e+00) #3
  %51 = fmul double %44, %50
  %52 = fsub double %36, %51
  %53 = fptrunc double %52 to float
  store float %53, float* %11, align 4
  %54 = load float, float* %11, align 4
  ret float %54
}

declare dso_local i32 @printf(i8*, ...) #1

; Function Attrs: nounwind
declare dso_local double @sqrt(double) #2

; Function Attrs: nounwind
declare dso_local double @pow(double, double) #2

; Function Attrs: nounwind
declare dso_local double @cos(double) #2


!llvm.module.flags = !{!0}
!llvm.ident = !{!1}

!0 = !{i32 1, !"wchar_size", i32 4}
!1 = !{!"clang version 10.0.0-4ubuntu1 "}
